target datalayout = "e-m:e-p270:32:32-p271:32:32-p272:64:64-i64:64-i128:128-f80:128-n8:16:32:64-S128"
target triple = "x86_64-pc-linux-gnu"

%"class.std::basic_istream" = type { ptr, i64, %"class.std::basic_ios" }
%"class.std::basic_ios" = type { %"class.std::ios_base", ptr, i8, i8, ptr, ptr, ptr, ptr }
%"class.std::ios_base" = type { ptr, i64, i64, i32, i32, i32, ptr, %"struct.std::ios_base::_Words", [8 x %"struct.std::ios_base::_Words"], i32, ptr, %"class.std::locale" }
%"struct.std::ios_base::_Words" = type { ptr, i64 }
%"class.std::locale" = type { ptr }
%"class.std::basic_ostream" = type { ptr, %"class.std::basic_ios" }
%class.V3LexerBase = type <{ %class.FlexLexer.base, i32, i32, [4 x i8], ptr, %"class.std::basic_istream", %"class.std::basic_ostream", i8, [3 x i8], i32, ptr, i32, i32, i32, [4 x i8], i64, i64, ptr, i32, [4 x i8], ptr, ptr, ptr, ptr, ptr, i32, i32, i32, i32, i32, i32, i32, [4 x i8] }>
%class.FlexLexer.base = type <{ ptr, ptr, i32, i32, i32 }>
%class.FlexLexer = type <{ ptr, ptr, i32, i32, i32, [4 x i8] }>
%struct.yy_buffer_state = type { ptr, ptr, ptr, i32, i32, i32, i32, i32, i32, i32, i32, i32 }

; Function Attrs: mustprogress uwtable
define dso_local void @_ZN11V3LexerBase20yy_load_buffer_stateEv(ptr noundef nonnull align 8 dereferenceable(732) %0) #5 align 2 {
  %2 = alloca ptr, align 8
  store ptr %0, ptr %2, align 8
  %3 = load ptr, ptr %2, align 8
  %4 = getelementptr inbounds %class.V3LexerBase, ptr %3, i32 0, i32 17
  %5 = load ptr, ptr %4, align 8
  %6 = getelementptr inbounds %class.V3LexerBase, ptr %3, i32 0, i32 15
  %7 = load i64, ptr %6, align 8
  %8 = getelementptr inbounds ptr, ptr %5, i64 %7
  %9 = load ptr, ptr %8, align 8
  %10 = getelementptr inbounds %struct.yy_buffer_state, ptr %9, i32 0, i32 4
  %11 = load i32, ptr %10, align 4
  %12 = getelementptr inbounds %class.V3LexerBase, ptr %3, i32 0, i32 9
  store i32 %11, ptr %12, align 4
  %13 = getelementptr inbounds %class.V3LexerBase, ptr %3, i32 0, i32 17
  %14 = load ptr, ptr %13, align 8
  %15 = getelementptr inbounds %class.V3LexerBase, ptr %3, i32 0, i32 15
  %16 = load i64, ptr %15, align 8
  %17 = getelementptr inbounds ptr, ptr %14, i64 %16
  %18 = load ptr, ptr %17, align 8
  %19 = getelementptr inbounds %struct.yy_buffer_state, ptr %18, i32 0, i32 2
  %20 = load ptr, ptr %19, align 8
  %21 = getelementptr inbounds %class.V3LexerBase, ptr %3, i32 0, i32 10
  store ptr %20, ptr %21, align 8
  %22 = getelementptr inbounds %class.FlexLexer, ptr %3, i32 0, i32 1
  store ptr %20, ptr %22, align 8
  %23 = getelementptr inbounds %class.V3LexerBase, ptr %3, i32 0, i32 5
  %24 = load ptr, ptr %23, align 8
  %25 = getelementptr i8, ptr %24, i64 -24
  %26 = load i64, ptr %25, align 8
  %27 = getelementptr inbounds i8, ptr %23, i64 %26
  %28 = getelementptr inbounds %class.V3LexerBase, ptr %3, i32 0, i32 17
  %29 = load ptr, ptr %28, align 8
  %30 = getelementptr inbounds %class.V3LexerBase, ptr %3, i32 0, i32 15
  %31 = load i64, ptr %30, align 8
  %32 = getelementptr inbounds ptr, ptr %29, i64 %31
  %33 = load ptr, ptr %32, align 8
  %34 = getelementptr inbounds %struct.yy_buffer_state, ptr %33, i32 0, i32 0
  %35 = load ptr, ptr %34, align 8
  %36 = call noundef ptr @_ZNSt9basic_iosIcSt11char_traitsIcEE5rdbufEPSt15basic_streambufIcS1_E(ptr noundef nonnull align 8 dereferenceable(264) %27, ptr noundef %35)
  %37 = getelementptr inbounds %class.V3LexerBase, ptr %3, i32 0, i32 10
  %38 = load ptr, ptr %37, align 8
  %39 = load i8, ptr %38, align 1
  %40 = getelementptr inbounds %class.V3LexerBase, ptr %3, i32 0, i32 7
  store i8 %39, ptr %40, align 8
  ret void
}

; Function Attrs: mustprogress uwtable
define dso_local void @_ZN11V3LexerBase18yypop_buffer_stateEv(ptr noundef nonnull align 8 dereferenceable(732) %0) #5 align 2 {
  %2 = alloca ptr, align 8
  store ptr %0, ptr %2, align 8
  %3 = load ptr, ptr %2, align 8
  %4 = getelementptr inbounds %class.V3LexerBase, ptr %3, i32 0, i32 17
  %5 = load ptr, ptr %4, align 8
  %6 = icmp ne ptr %5, null
  br i1 %6, label %7, label %14

7:                                                ; preds = %1
  %8 = getelementptr inbounds %class.V3LexerBase, ptr %3, i32 0, i32 17
  %9 = load ptr, ptr %8, align 8
  %10 = getelementptr inbounds %class.V3LexerBase, ptr %3, i32 0, i32 15
  %11 = load i64, ptr %10, align 8
  %12 = getelementptr inbounds ptr, ptr %9, i64 %11
  %13 = load ptr, ptr %12, align 8
  br label %15

14:                                               ; preds = %1
  br label %15

15:                                               ; preds = %14, %7
  %16 = phi ptr [ %13, %7 ], [ null, %14 ]
  %17 = icmp ne ptr %16, null
  br i1 %17, label %19, label %18

18:                                               ; preds = %15
  br label %65

19:                                               ; preds = %15
  %20 = getelementptr inbounds %class.V3LexerBase, ptr %3, i32 0, i32 17
  %21 = load ptr, ptr %20, align 8
  %22 = icmp ne ptr %21, null
  br i1 %22, label %23, label %30

23:                                               ; preds = %19
  %24 = getelementptr inbounds %class.V3LexerBase, ptr %3, i32 0, i32 17
  %25 = load ptr, ptr %24, align 8
  %26 = getelementptr inbounds %class.V3LexerBase, ptr %3, i32 0, i32 15
  %27 = load i64, ptr %26, align 8
  %28 = getelementptr inbounds ptr, ptr %25, i64 %27
  %29 = load ptr, ptr %28, align 8
  br label %31

30:                                               ; preds = %19
  br label %31

31:                                               ; preds = %30, %23
  %32 = phi ptr [ %29, %23 ], [ null, %30 ]
  %33 = load ptr, ptr %3, align 8
  %34 = getelementptr inbounds ptr, ptr %33, i64 5
  %35 = load ptr, ptr %34, align 8
  call void %35(ptr noundef nonnull align 8 dereferenceable(732) %3, ptr noundef %32)
  %36 = getelementptr inbounds %class.V3LexerBase, ptr %3, i32 0, i32 17
  %37 = load ptr, ptr %36, align 8
  %38 = getelementptr inbounds %class.V3LexerBase, ptr %3, i32 0, i32 15
  %39 = load i64, ptr %38, align 8
  %40 = getelementptr inbounds ptr, ptr %37, i64 %39
  store ptr null, ptr %40, align 8
  %41 = getelementptr inbounds %class.V3LexerBase, ptr %3, i32 0, i32 15
  %42 = load i64, ptr %41, align 8
  %43 = icmp ugt i64 %42, 0
  br i1 %43, label %44, label %48

44:                                               ; preds = %31
  %45 = getelementptr inbounds %class.V3LexerBase, ptr %3, i32 0, i32 15
  %46 = load i64, ptr %45, align 8
  %47 = add i64 %46, -1
  store i64 %47, ptr %45, align 8
  br label %48

48:                                               ; preds = %44, %31
  %49 = getelementptr inbounds %class.V3LexerBase, ptr %3, i32 0, i32 17
  %50 = load ptr, ptr %49, align 8
  %51 = icmp ne ptr %50, null
  br i1 %51, label %52, label %59

52:                                               ; preds = %48
  %53 = getelementptr inbounds %class.V3LexerBase, ptr %3, i32 0, i32 17
  %54 = load ptr, ptr %53, align 8
  %55 = getelementptr inbounds %class.V3LexerBase, ptr %3, i32 0, i32 15
  %56 = load i64, ptr %55, align 8
  %57 = getelementptr inbounds ptr, ptr %54, i64 %56
  %58 = load ptr, ptr %57, align 8
  br label %60

59:                                               ; preds = %48
  br label %60

60:                                               ; preds = %59, %52
  %61 = phi ptr [ %58, %52 ], [ null, %59 ]
  %62 = icmp ne ptr %61, null
  br i1 %62, label %63, label %65

63:                                               ; preds = %60
  call void @_ZN11V3LexerBase20yy_load_buffer_stateEv(ptr noundef nonnull align 8 dereferenceable(732) %3)
  %64 = getelementptr inbounds %class.V3LexerBase, ptr %3, i32 0, i32 13
  store i32 1, ptr %64, align 8
  br label %65

65:                                               ; preds = %63, %60, %18
  ret void
}