; Function Attrs: mustprogress uwtable
define dso_local void @_ZN11V3LexerBase18yypop_buffer_stateEv(ptr noundef nonnull align 8 dereferenceable(732) %0) local_unnamed_addr #4 align 2 {
  %2 = getelementptr inbounds i8, ptr %0, i64 648
  %3 = load ptr, ptr %2, align 8
  %.not = icmp eq ptr %3, null
  br i1 %.not, label %.critedge, label %4

4:                                                ; preds = %1
  %5 = getelementptr inbounds i8, ptr %0, i64 632
  %6 = load i64, ptr %5, align 8
  %7 = getelementptr inbounds ptr, ptr %3, i64 %6
  %8 = load ptr, ptr %7, align 8
  %9 = icmp eq ptr %8, null
  br i1 %9, label %.critedge, label %10

10:                                               ; preds = %4
  %11 = load ptr, ptr %0, align 8
  %12 = getelementptr inbounds i8, ptr %11, i64 40
  %13 = load ptr, ptr %12, align 8
  tail call void %13(ptr noundef nonnull align 8 dereferenceable(732) %0, ptr noundef nonnull %8)
  %14 = load ptr, ptr %2, align 8
  %15 = load i64, ptr %5, align 8
  %16 = getelementptr inbounds ptr, ptr %14, i64 %15
  store ptr null, ptr %16, align 8
  %17 = load i64, ptr %5, align 8
  %.not6 = icmp eq i64 %17, 0
  br i1 %.not6, label %20, label %18

18:                                               ; preds = %10
  %19 = add i64 %17, -1
  store i64 %19, ptr %5, align 8
  br label %20

20:                                               ; preds = %18, %10
  %21 = phi i64 [ %19, %18 ], [ 0, %10 ]
  %22 = load ptr, ptr %2, align 8
  %.not7 = icmp eq ptr %22, null
  br i1 %.not7, label %.critedge, label %23

23:                                               ; preds = %20
  %24 = getelementptr inbounds ptr, ptr %22, i64 %21
  %25 = load ptr, ptr %24, align 8
  %26 = icmp eq ptr %25, null
  br i1 %26, label %.critedge, label %27

27:                                               ; preds = %23
  %28 = getelementptr inbounds i8, ptr %25, i64 28
  %29 = load i32, ptr %28, align 4
  %30 = getelementptr inbounds i8, ptr %0, i64 604
  store i32 %29, ptr %30, align 4
  %31 = load ptr, ptr %24, align 8
  %32 = getelementptr inbounds i8, ptr %31, i64 16
  %33 = load ptr, ptr %32, align 8
  %34 = getelementptr inbounds i8, ptr %0, i64 608
  store ptr %33, ptr %34, align 8
  %35 = getelementptr inbounds i8, ptr %0, i64 8
  store ptr %33, ptr %35, align 8
  %36 = getelementptr inbounds i8, ptr %0, i64 48
  %37 = load ptr, ptr %36, align 8
  %38 = getelementptr i8, ptr %37, i64 -24
  %39 = load i64, ptr %38, align 8
  %40 = getelementptr inbounds i8, ptr %36, i64 %39
  %41 = load ptr, ptr %24, align 8
  %42 = load ptr, ptr %41, align 8
  %43 = tail call noundef ptr @_ZNSt9basic_iosIcSt11char_traitsIcEE5rdbufEPSt15basic_streambufIcS1_E(ptr noundef nonnull align 8 dereferenceable(264) %40, ptr noundef %42)
  %44 = load ptr, ptr %34, align 8
  %45 = load i8, ptr %44, align 1
  %46 = getelementptr inbounds i8, ptr %0, i64 600
  store i8 %45, ptr %46, align 8
  %47 = getelementptr inbounds i8, ptr %0, i64 624
  store i32 1, ptr %47, align 8
  br label %.critedge

.critedge:                                        ; preds = %20, %1, %4, %27, %23
  ret void
}